target datalayout = "e-m:e-p270:32:32-p271:32:32-p272:64:64-i64:64-i128:128-f80:128-n8:16:32:64-S128"
target triple = "x86_64-pc-linux-gnu"

%struct._ir_insn = type { %struct.anon, %union.anon.6 }
%struct.anon = type { %union.anon.0, %union.anon.5 }
%union.anon.0 = type { i32 }
%union.anon.5 = type { i32 }
%union.anon.6 = type { %union._ir_val }
%union._ir_val = type { double }
%struct.anon.7 = type { i32, i32 }
%struct._ir_ctx = type { ptr, i32, i32, i32, i32, i32, i32, i32, i32, i32, i32, %struct._ir_insn, ptr, ptr, ptr, i32, i32, i32, ptr, ptr, ptr, ptr, ptr, i32, i32, i64, i32, i32, i32, i64, i32, i32, i32, i32, ptr, ptr, ptr, ptr, ptr, ptr, %union.anon.14, ptr, i32, i32, i32, i64, i32, i32, i32, ptr, ptr, ptr, ptr, %struct._ir_strtab, [61 x i32], [14 x i32] }
%union.anon.14 = type { ptr }
%struct._ir_strtab = type { ptr, i32, i32, i32, i32, ptr, i32, i32 }
%struct.anon.1 = type { %union.anon.2, %union.anon.4 }
%union.anon.2 = type { i16 }
%union.anon.4 = type { i16 }
%struct.anon.3 = type { i8, i8 }
%struct._ir_use_list = type { i32, i32 }

; Function Attrs: nounwind uwtable
define internal void @ir_swap_ops(ptr noundef %0) #0 {
  %2 = alloca ptr, align 8
  %3 = alloca i32, align 4
  store ptr %0, ptr %2, align 8
  %4 = load ptr, ptr %2, align 8
  %5 = getelementptr inbounds %struct._ir_insn, ptr %4, i32 0, i32 0
  %6 = getelementptr inbounds %struct.anon, ptr %5, i32 0, i32 1
  %7 = load i32, ptr %6, align 4
  store i32 %7, ptr %3, align 4
  %8 = load ptr, ptr %2, align 8
  %9 = getelementptr inbounds %struct._ir_insn, ptr %8, i32 0, i32 1
  %10 = getelementptr inbounds %struct.anon.7, ptr %9, i32 0, i32 0
  %11 = load i32, ptr %10, align 8
  %12 = load ptr, ptr %2, align 8
  %13 = getelementptr inbounds %struct._ir_insn, ptr %12, i32 0, i32 0
  %14 = getelementptr inbounds %struct.anon, ptr %13, i32 0, i32 1
  store i32 %11, ptr %14, align 4
  %15 = load i32, ptr %3, align 4
  %16 = load ptr, ptr %2, align 8
  %17 = getelementptr inbounds %struct._ir_insn, ptr %16, i32 0, i32 1
  %18 = getelementptr inbounds %struct.anon.7, ptr %17, i32 0, i32 0
  store i32 %15, ptr %18, align 8
  ret void
}

; Function Attrs: nounwind uwtable
define internal zeroext i1 @ir_match_try_revert_lea_to_add(ptr noundef %0, i32 noundef %1) #0 {
  %3 = alloca i1, align 1
  %4 = alloca ptr, align 8
  %5 = alloca i32, align 4
  %6 = alloca ptr, align 8
  store ptr %0, ptr %4, align 8
  store i32 %1, ptr %5, align 4
  %7 = load ptr, ptr %4, align 8
  %8 = getelementptr inbounds %struct._ir_ctx, ptr %7, i32 0, i32 0
  %9 = load ptr, ptr %8, align 8
  %10 = load i32, ptr %5, align 4
  %11 = sext i32 %10 to i64
  %12 = getelementptr inbounds %struct._ir_insn, ptr %9, i64 %11
  store ptr %12, ptr %6, align 8
  %13 = load ptr, ptr %6, align 8
  %14 = getelementptr inbounds %struct._ir_insn, ptr %13, i32 0, i32 0
  %15 = getelementptr inbounds %struct.anon, ptr %14, i32 0, i32 1
  %16 = load i32, ptr %15, align 4
  %17 = load ptr, ptr %6, align 8
  %18 = getelementptr inbounds %struct._ir_insn, ptr %17, i32 0, i32 1
  %19 = getelementptr inbounds %struct.anon.7, ptr %18, i32 0, i32 0
  %20 = load i32, ptr %19, align 8
  %21 = icmp eq i32 %16, %20
  br i1 %21, label %22, label %23

22:                                               ; preds = %2
  br label %56

23:                                               ; preds = %2
  %24 = load ptr, ptr %4, align 8
  %25 = load ptr, ptr %6, align 8
  %26 = getelementptr inbounds %struct._ir_insn, ptr %25, i32 0, i32 1
  %27 = getelementptr inbounds %struct.anon.7, ptr %26, i32 0, i32 0
  %28 = load i32, ptr %27, align 8
  %29 = load i32, ptr %5, align 4
  %30 = call zeroext i1 @ir_match_try_fuse_load(ptr noundef %24, i32 noundef %28, i32 noundef %29)
  br i1 %30, label %31, label %38

31:                                               ; preds = %23
  %32 = load ptr, ptr %4, align 8
  %33 = getelementptr inbounds %struct._ir_ctx, ptr %32, i32 0, i32 21
  %34 = load ptr, ptr %33, align 8
  %35 = load i32, ptr %5, align 4
  %36 = sext i32 %35 to i64
  %37 = getelementptr inbounds i32, ptr %34, i64 %36
  store i32 134217868, ptr %37, align 4
  store i1 true, ptr %3, align 1
  br label %57

38:                                               ; preds = %23
  %39 = load ptr, ptr %4, align 8
  %40 = load ptr, ptr %6, align 8
  %41 = getelementptr inbounds %struct._ir_insn, ptr %40, i32 0, i32 0
  %42 = getelementptr inbounds %struct.anon, ptr %41, i32 0, i32 1
  %43 = load i32, ptr %42, align 4
  %44 = load i32, ptr %5, align 4
  %45 = call zeroext i1 @ir_match_try_fuse_load(ptr noundef %39, i32 noundef %43, i32 noundef %44)
  br i1 %45, label %46, label %54

46:                                               ; preds = %38
  %47 = load ptr, ptr %6, align 8
  call void @ir_swap_ops(ptr noundef %47)
  %48 = load ptr, ptr %4, align 8
  %49 = getelementptr inbounds %struct._ir_ctx, ptr %48, i32 0, i32 21
  %50 = load ptr, ptr %49, align 8
  %51 = load i32, ptr %5, align 4
  %52 = sext i32 %51 to i64
  %53 = getelementptr inbounds i32, ptr %50, i64 %52
  store i32 134217868, ptr %53, align 4
  store i1 true, ptr %3, align 1
  br label %57

54:                                               ; preds = %38
  br label %55

55:                                               ; preds = %54
  br label %56

56:                                               ; preds = %55, %22
  store i1 false, ptr %3, align 1
  br label %57

57:                                               ; preds = %56, %46, %31
  %58 = load i1, ptr %3, align 1
  ret i1 %58
}

; Function Attrs: nounwind uwtable
define internal void @ir_match_fuse_addr(ptr noundef %0, i32 noundef %1) #0 {
  %3 = alloca ptr, align 8
  %4 = alloca i32, align 4
  %5 = alloca i32, align 4
  %6 = alloca ptr, align 8
  %7 = alloca i32, align 4
  %8 = alloca ptr, align 8
  %9 = alloca ptr, align 8
  store ptr %0, ptr %3, align 8
  store i32 %1, ptr %4, align 4
  %10 = load i32, ptr %4, align 4
  %11 = icmp slt i32 %10, 0
  br i1 %11, label %118, label %12

12:                                               ; preds = %2
  %13 = load ptr, ptr %3, align 8
  %14 = getelementptr inbounds %struct._ir_ctx, ptr %13, i32 0, i32 21
  %15 = load ptr, ptr %14, align 8
  %16 = load i32, ptr %4, align 4
  %17 = sext i32 %16 to i64
  %18 = getelementptr inbounds i32, ptr %15, i64 %17
  %19 = load i32, ptr %18, align 4
  store i32 %19, ptr %5, align 4
  %20 = load i32, ptr %5, align 4
  %21 = icmp ne i32 %20, 0
  br i1 %21, label %32, label %22

22:                                               ; preds = %12
  %23 = load ptr, ptr %3, align 8
  %24 = load i32, ptr %4, align 4
  %25 = call i32 @ir_match_insn(ptr noundef %23, i32 noundef %24)
  store i32 %25, ptr %5, align 4
  %26 = load ptr, ptr %3, align 8
  %27 = getelementptr inbounds %struct._ir_ctx, ptr %26, i32 0, i32 21
  %28 = load ptr, ptr %27, align 8
  %29 = load i32, ptr %4, align 4
  %30 = sext i32 %29 to i64
  %31 = getelementptr inbounds i32, ptr %28, i64 %30
  store i32 %25, ptr %31, align 4
  br label %32

32:                                               ; preds = %22, %12
  %33 = load i32, ptr %5, align 4
  %34 = icmp uge i32 %33, 115
  br i1 %34, label %35, label %117

35:                                               ; preds = %32
  %36 = load i32, ptr %5, align 4
  %37 = icmp ule i32 %36, 127
  br i1 %37, label %38, label %117

38:                                               ; preds = %35
  %39 = load i32, ptr %5, align 4
  %40 = icmp eq i32 %39, 118
  br i1 %40, label %41, label %46

41:                                               ; preds = %38
  %42 = load ptr, ptr %3, align 8
  %43 = load i32, ptr %4, align 4
  %44 = call zeroext i1 @ir_match_try_revert_lea_to_add(ptr noundef %42, i32 noundef %43)
  br i1 %44, label %45, label %46

45:                                               ; preds = %41
  br label %118

46:                                               ; preds = %41, %38
  %47 = load ptr, ptr %3, align 8
  %48 = getelementptr inbounds %struct._ir_ctx, ptr %47, i32 0, i32 13
  %49 = load ptr, ptr %48, align 8
  %50 = load i32, ptr %4, align 4
  %51 = sext i32 %50 to i64
  %52 = getelementptr inbounds %struct._ir_use_list, ptr %49, i64 %51
  store ptr %52, ptr %6, align 8
  %53 = load ptr, ptr %6, align 8
  %54 = getelementptr inbounds %struct._ir_use_list, ptr %53, i32 0, i32 1
  %55 = load i32, ptr %54, align 4
  store i32 %55, ptr %7, align 4
  %56 = load i32, ptr %7, align 4
  %57 = icmp sgt i32 %56, 1
  br i1 %57, label %58, label %108

58:                                               ; preds = %46
  %59 = load ptr, ptr %3, align 8
  %60 = getelementptr inbounds %struct._ir_ctx, ptr %59, i32 0, i32 14
  %61 = load ptr, ptr %60, align 8
  %62 = load ptr, ptr %6, align 8
  %63 = getelementptr inbounds %struct._ir_use_list, ptr %62, i32 0, i32 0
  %64 = load i32, ptr %63, align 4
  %65 = sext i32 %64 to i64
  %66 = getelementptr inbounds i32, ptr %61, i64 %65
  store ptr %66, ptr %8, align 8
  br label %67

67:                                               ; preds = %103, %58
  %68 = load ptr, ptr %3, align 8
  %69 = getelementptr inbounds %struct._ir_ctx, ptr %68, i32 0, i32 0
  %70 = load ptr, ptr %69, align 8
  %71 = load ptr, ptr %8, align 8
  %72 = load i32, ptr %71, align 4
  %73 = sext i32 %72 to i64
  %74 = getelementptr inbounds %struct._ir_insn, ptr %70, i64 %73
  store ptr %74, ptr %9, align 8
  %75 = load ptr, ptr %9, align 8
  %76 = getelementptr inbounds %struct._ir_insn, ptr %75, i32 0, i32 0
  %77 = getelementptr inbounds %struct.anon, ptr %76, i32 0, i32 0
  %78 = getelementptr inbounds %struct.anon.1, ptr %77, i32 0, i32 0
  %79 = getelementptr inbounds %struct.anon.3, ptr %78, i32 0, i32 0
  %80 = load i8, ptr %79, align 8
  %81 = zext i8 %80 to i32
  %82 = icmp ne i32 %81, 78
  br i1 %82, label %83, label %100

83:                                               ; preds = %67
  %84 = load ptr, ptr %9, align 8
  %85 = getelementptr inbounds %struct._ir_insn, ptr %84, i32 0, i32 0
  %86 = getelementptr inbounds %struct.anon, ptr %85, i32 0, i32 0
  %87 = getelementptr inbounds %struct.anon.1, ptr %86, i32 0, i32 0
  %88 = getelementptr inbounds %struct.anon.3, ptr %87, i32 0, i32 0
  %89 = load i8, ptr %88, align 8
  %90 = zext i8 %89 to i32
  %91 = icmp ne i32 %90, 79
  br i1 %91, label %99, label %92

92:                                               ; preds = %83
  %93 = load ptr, ptr %9, align 8
  %94 = getelementptr inbounds %struct._ir_insn, ptr %93, i32 0, i32 1
  %95 = getelementptr inbounds %struct.anon.7, ptr %94, i32 0, i32 1
  %96 = load i32, ptr %95, align 4
  %97 = load i32, ptr %4, align 4
  %98 = icmp eq i32 %96, %97
  br i1 %98, label %99, label %100

99:                                               ; preds = %92, %83
  br label %118

100:                                              ; preds = %92, %67
  %101 = load ptr, ptr %8, align 8
  %102 = getelementptr inbounds i32, ptr %101, i32 1
  store ptr %102, ptr %8, align 8
  br label %103

103:                                              ; preds = %100
  %104 = load i32, ptr %7, align 4
  %105 = add nsw i32 %104, -1
  store i32 %105, ptr %7, align 4
  %106 = icmp ne i32 %105, 0
  br i1 %106, label %67, label %107

107:                                              ; preds = %103
  br label %108

108:                                              ; preds = %107, %46
  %109 = load i32, ptr %5, align 4
  %110 = or i32 -1610612736, %109
  %111 = load ptr, ptr %3, align 8
  %112 = getelementptr inbounds %struct._ir_ctx, ptr %111, i32 0, i32 21
  %113 = load ptr, ptr %112, align 8
  %114 = load i32, ptr %4, align 4
  %115 = sext i32 %114 to i64
  %116 = getelementptr inbounds i32, ptr %113, i64 %115
  store i32 %110, ptr %116, align 4
  br label %117

117:                                              ; preds = %108, %35, %32
  br label %118

118:                                              ; preds = %117, %99, %45, %2
  ret void
}