; Function Attrs: nounwind uwtable
define internal fastcc void @ir_match_fuse_addr(ptr noundef %0, i32 noundef %1) unnamed_addr #1 {
  %3 = icmp slt i32 %1, 0
  br i1 %3, label %ir_match_try_revert_lea_to_add.exit.thread, label %4

4:                                                ; preds = %2
  %5 = getelementptr inbounds i8, ptr %0, i64 128
  %6 = load ptr, ptr %5, align 8
  %7 = zext nneg i32 %1 to i64
  %8 = getelementptr inbounds i32, ptr %6, i64 %7
  %9 = load i32, ptr %8, align 4
  %.not = icmp eq i32 %9, 0
  br i1 %.not, label %10, label %14

10:                                               ; preds = %4
  %11 = tail call fastcc i32 @ir_match_insn(ptr noundef nonnull %0, i32 noundef %1)
  %12 = load ptr, ptr %5, align 8
  %13 = getelementptr inbounds i32, ptr %12, i64 %7
  store i32 %11, ptr %13, align 4
  br label %14

14:                                               ; preds = %10, %4
  %.0 = phi i32 [ %9, %4 ], [ %11, %10 ]
  %15 = add i32 %.0, -115
  %or.cond = icmp ult i32 %15, 13
  br i1 %or.cond, label %16, label %ir_match_try_revert_lea_to_add.exit.thread

16:                                               ; preds = %14
  %17 = icmp eq i32 %.0, 118
  br i1 %17, label %18, label %ir_match_try_revert_lea_to_add.exit

18:                                               ; preds = %16
  %19 = load ptr, ptr %0, align 8
  %20 = getelementptr inbounds %struct._ir_insn, ptr %19, i64 %7
  %21 = getelementptr inbounds i8, ptr %20, i64 4
  %22 = load i32, ptr %21, align 4
  %23 = getelementptr inbounds i8, ptr %20, i64 8
  %24 = load i32, ptr %23, align 8
  %25 = icmp eq i32 %22, %24
  br i1 %25, label %ir_match_try_revert_lea_to_add.exit, label %26

26:                                               ; preds = %18
  %27 = tail call fastcc zeroext i1 @ir_match_try_fuse_load(ptr noundef nonnull %0, i32 noundef %24, i32 noundef %1)
  br i1 %27, label %ir_match_try_revert_lea_to_add.exit.thread.sink.split, label %28

28:                                               ; preds = %26
  %29 = load i32, ptr %21, align 4
  %30 = tail call fastcc zeroext i1 @ir_match_try_fuse_load(ptr noundef nonnull %0, i32 noundef %29, i32 noundef %1)
  br i1 %30, label %31, label %ir_match_try_revert_lea_to_add.exit

31:                                               ; preds = %28
  %32 = load <2 x i32>, ptr %21, align 4
  %33 = shufflevector <2 x i32> %32, <2 x i32> poison, <2 x i32> <i32 1, i32 0>
  store <2 x i32> %33, ptr %21, align 4
  br label %ir_match_try_revert_lea_to_add.exit.thread.sink.split

ir_match_try_revert_lea_to_add.exit:              ; preds = %28, %18, %16
  %34 = getelementptr inbounds i8, ptr %0, i64 72
  %35 = load ptr, ptr %34, align 8
  %36 = getelementptr inbounds %struct._ir_use_list, ptr %35, i64 %7
  %37 = getelementptr inbounds i8, ptr %36, i64 4
  %38 = load i32, ptr %37, align 4
  %39 = icmp sgt i32 %38, 1
  br i1 %39, label %40, label %.loopexit

40:                                               ; preds = %ir_match_try_revert_lea_to_add.exit
  %41 = getelementptr inbounds i8, ptr %0, i64 80
  %42 = load ptr, ptr %41, align 8
  %43 = load i32, ptr %36, align 4
  %44 = sext i32 %43 to i64
  %45 = getelementptr inbounds i32, ptr %42, i64 %44
  %46 = load ptr, ptr %0, align 8
  br label %47

47:                                               ; preds = %56, %40
  %.031 = phi i32 [ %38, %40 ], [ %58, %56 ]
  %.030 = phi ptr [ %45, %40 ], [ %57, %56 ]
  %48 = load i32, ptr %.030, align 4
  %49 = sext i32 %48 to i64
  %50 = getelementptr inbounds %struct._ir_insn, ptr %46, i64 %49
  %51 = load i8, ptr %50, align 8
  switch i8 %51, label %ir_match_try_revert_lea_to_add.exit.thread [
    i8 78, label %56
    i8 79, label %52
  ]

52:                                               ; preds = %47
  %53 = getelementptr inbounds i8, ptr %50, i64 12
  %54 = load i32, ptr %53, align 4
  %55 = icmp eq i32 %54, %1
  br i1 %55, label %ir_match_try_revert_lea_to_add.exit.thread, label %56

56:                                               ; preds = %47, %52
  %57 = getelementptr inbounds i8, ptr %.030, i64 4
  %58 = add nsw i32 %.031, -1
  %.not39 = icmp eq i32 %58, 0
  br i1 %.not39, label %.loopexit, label %47

.loopexit:                                        ; preds = %56, %ir_match_try_revert_lea_to_add.exit
  %59 = or disjoint i32 %.0, -1610612736
  br label %ir_match_try_revert_lea_to_add.exit.thread.sink.split

ir_match_try_revert_lea_to_add.exit.thread.sink.split: ; preds = %26, %.loopexit, %31
  %.sink = phi i32 [ 134217868, %31 ], [ %59, %.loopexit ], [ 134217868, %26 ]
  %60 = load ptr, ptr %5, align 8
  %61 = getelementptr inbounds i32, ptr %60, i64 %7
  store i32 %.sink, ptr %61, align 4
  br label %ir_match_try_revert_lea_to_add.exit.thread

ir_match_try_revert_lea_to_add.exit.thread:       ; preds = %47, %52, %ir_match_try_revert_lea_to_add.exit.thread.sink.split, %14, %2
  ret void
}